; Function Attrs: mustprogress uwtable
define hidden noundef i32 @_ZN11bv_rewriter9mk_bv_norEjPKP4exprR7obj_refIS0_11ast_managerE(ptr noundef nonnull readonly align 8 captures(none) dereferenceable(157) %0, i32 noundef %1, ptr noundef %2, ptr noundef nonnull align 8 captures(none) dereferenceable(16) %3) local_unnamed_addr #3 align 2 {
  %5 = getelementptr inbounds nuw i8, ptr %0, i64 8
  %6 = getelementptr inbounds nuw i8, ptr %0, i64 16
  %7 = load ptr, ptr %6, align 8, !tbaa !74
  %8 = load i32, ptr %5, align 8, !tbaa !75
  %9 = tail call noundef ptr @_ZN11ast_manager6mk_appEiijPKP4expr(ptr noundef nonnull align 8 dereferenceable(976) %7, i32 noundef %8, i32 noundef 31, i32 noundef %1, ptr noundef %2)
  %10 = load ptr, ptr %6, align 8, !tbaa !74
  %11 = load i32, ptr %5, align 8, !tbaa !75
  %12 = tail call noundef ptr @_ZN11ast_manager6mk_appEiiP4expr(ptr noundef nonnull align 8 dereferenceable(976) %10, i32 noundef %11, i32 noundef 32, ptr noundef %9)
  %.not.i = icmp eq ptr %12, null
  br i1 %.not.i, label %16, label %_ZN11ast_manager7inc_refEP3ast.exit.i

_ZN11ast_manager7inc_refEP3ast.exit.i:            ; preds = %4
  %13 = getelementptr inbounds nuw i8, ptr %12, i64 8
  %14 = load i32, ptr %13, align 4, !tbaa !71
  %15 = add i32 %14, 1
  store i32 %15, ptr %13, align 4, !tbaa !71
  br label %16

16:                                               ; preds = %_ZN11ast_manager7inc_refEP3ast.exit.i, %4
  %17 = load ptr, ptr %3, align 8, !tbaa !72
  %.not.i4.i = icmp eq ptr %17, null
  br i1 %.not.i4.i, label %_ZN7obj_refI4expr11ast_managerEaSEPS0_.exit, label %18

18:                                               ; preds = %16
  %19 = getelementptr inbounds nuw i8, ptr %3, i64 8
  %20 = load ptr, ptr %19, align 8, !tbaa !73
  %21 = getelementptr inbounds nuw i8, ptr %17, i64 8
  %22 = load i32, ptr %21, align 4, !tbaa !71
  %23 = add i32 %22, -1
  store i32 %23, ptr %21, align 4, !tbaa !71
  %24 = icmp eq i32 %23, 0
  br i1 %24, label %25, label %_ZN7obj_refI4expr11ast_managerEaSEPS0_.exit

25:                                               ; preds = %18
  tail call void @_ZN11ast_manager11delete_nodeEP3ast(ptr noundef nonnull align 8 dereferenceable(976) %20, ptr noundef nonnull %17)
  br label %_ZN7obj_refI4expr11ast_managerEaSEPS0_.exit

_ZN7obj_refI4expr11ast_managerEaSEPS0_.exit:      ; preds = %16, %18, %25
  store ptr %12, ptr %3, align 8, !tbaa !72
  ret i32 1
}